target datalayout = "e-m:e-p270:32:32-p271:32:32-p272:64:64-i64:64-i128:128-f80:128-n8:16:32:64-S128"
target triple = "x86_64-pc-linux-gnu"

%struct.mi_random_cxt_s = type { [16 x i32], [16 x i32], i32 }
%struct.timespec = type { i64, i64 }

@.str = private unnamed_addr constant [33 x i8] c"unable to use secure randomness\0A\00", align 1
@os_random_buf.no_getrandom = internal global i64 0, align 8
@.str.1 = private unnamed_addr constant [13 x i8] c"/dev/urandom\00", align 1
@.str.2 = private unnamed_addr constant [17 x i8] c"expand 32-byte k\00", align 1

; Function Attrs: inlinehint nounwind uwtable
define internal i32 @read32(ptr noundef %0, i64 noundef %1) #3 {
  %3 = alloca ptr, align 8
  %4 = alloca i64, align 8
  %5 = alloca i64, align 8
  store ptr %0, ptr %3, align 8, !tbaa !22
  store i64 %1, ptr %4, align 8, !tbaa !8
  call void @llvm.lifetime.start.p0(i64 8, ptr %5) #8
  %6 = load i64, ptr %4, align 8, !tbaa !8
  %7 = mul i64 4, %6
  store i64 %7, ptr %5, align 8, !tbaa !8
  %8 = load ptr, ptr %3, align 8, !tbaa !22
  %9 = load i64, ptr %5, align 8, !tbaa !8
  %10 = add i64 %9, 0
  %11 = getelementptr inbounds nuw i8, ptr %8, i64 %10
  %12 = load i8, ptr %11, align 1, !tbaa !31
  %13 = zext i8 %12 to i32
  %14 = load ptr, ptr %3, align 8, !tbaa !22
  %15 = load i64, ptr %5, align 8, !tbaa !8
  %16 = add i64 %15, 1
  %17 = getelementptr inbounds nuw i8, ptr %14, i64 %16
  %18 = load i8, ptr %17, align 1, !tbaa !31
  %19 = zext i8 %18 to i32
  %20 = shl i32 %19, 8
  %21 = or i32 %13, %20
  %22 = load ptr, ptr %3, align 8, !tbaa !22
  %23 = load i64, ptr %5, align 8, !tbaa !8
  %24 = add i64 %23, 2
  %25 = getelementptr inbounds nuw i8, ptr %22, i64 %24
  %26 = load i8, ptr %25, align 1, !tbaa !31
  %27 = zext i8 %26 to i32
  %28 = shl i32 %27, 16
  %29 = or i32 %21, %28
  %30 = load ptr, ptr %3, align 8, !tbaa !22
  %31 = load i64, ptr %5, align 8, !tbaa !8
  %32 = add i64 %31, 3
  %33 = getelementptr inbounds nuw i8, ptr %30, i64 %32
  %34 = load i8, ptr %33, align 1, !tbaa !31
  %35 = zext i8 %34 to i32
  %36 = shl i32 %35, 24
  %37 = or i32 %29, %36
  call void @llvm.lifetime.end.p0(i64 8, ptr %5) #8
  ret i32 %37
}

; Function Attrs: nounwind uwtable
define internal void @chacha_init(ptr noundef %0, ptr noundef %1, i64 noundef %2) #0 {
  %4 = alloca ptr, align 8
  %5 = alloca ptr, align 8
  %6 = alloca i64, align 8
  %7 = alloca i64, align 8
  %8 = alloca ptr, align 8
  %9 = alloca i64, align 8
  store ptr %0, ptr %4, align 8, !tbaa !3
  store ptr %1, ptr %5, align 8, !tbaa !22
  store i64 %2, ptr %6, align 8, !tbaa !8
  %10 = load ptr, ptr %4, align 8, !tbaa !3
  call void @llvm.memset.p0.i64(ptr align 4 %10, i8 0, i64 132, i1 false)
  call void @llvm.lifetime.start.p0(i64 8, ptr %7) #8
  store i64 0, ptr %7, align 8, !tbaa !8
  br label %11

11:                                               ; preds = %23, %3
  %12 = load i64, ptr %7, align 8, !tbaa !8
  %13 = icmp ult i64 %12, 4
  br i1 %13, label %15, label %14

14:                                               ; preds = %11
  call void @llvm.lifetime.end.p0(i64 8, ptr %7) #8
  br label %26

15:                                               ; preds = %11
  call void @llvm.lifetime.start.p0(i64 8, ptr %8) #8
  store ptr @.str.2, ptr %8, align 8, !tbaa !22
  %16 = load ptr, ptr %8, align 8, !tbaa !22
  %17 = load i64, ptr %7, align 8, !tbaa !8
  %18 = call i32 @read32(ptr noundef %16, i64 noundef %17)
  %19 = load ptr, ptr %4, align 8, !tbaa !3
  %20 = getelementptr inbounds nuw %struct.mi_random_cxt_s, ptr %19, i32 0, i32 0
  %21 = load i64, ptr %7, align 8, !tbaa !8
  %22 = getelementptr inbounds nuw [16 x i32], ptr %20, i64 0, i64 %21
  store i32 %18, ptr %22, align 4, !tbaa !10
  call void @llvm.lifetime.end.p0(i64 8, ptr %8) #8
  br label %23

23:                                               ; preds = %15
  %24 = load i64, ptr %7, align 8, !tbaa !8
  %25 = add i64 %24, 1
  store i64 %25, ptr %7, align 8, !tbaa !8
  br label %11, !llvm.loop !24

26:                                               ; preds = %14
  call void @llvm.lifetime.start.p0(i64 8, ptr %9) #8
  store i64 0, ptr %9, align 8, !tbaa !8
  br label %27

27:                                               ; preds = %40, %26
  %28 = load i64, ptr %9, align 8, !tbaa !8
  %29 = icmp ult i64 %28, 8
  br i1 %29, label %31, label %30

30:                                               ; preds = %27
  call void @llvm.lifetime.end.p0(i64 8, ptr %9) #8
  br label %43

31:                                               ; preds = %27
  %32 = load ptr, ptr %5, align 8, !tbaa !22
  %33 = load i64, ptr %9, align 8, !tbaa !8
  %34 = call i32 @read32(ptr noundef %32, i64 noundef %33)
  %35 = load ptr, ptr %4, align 8, !tbaa !3
  %36 = getelementptr inbounds nuw %struct.mi_random_cxt_s, ptr %35, i32 0, i32 0
  %37 = load i64, ptr %9, align 8, !tbaa !8
  %38 = add i64 %37, 4
  %39 = getelementptr inbounds nuw [16 x i32], ptr %36, i64 0, i64 %38
  store i32 %34, ptr %39, align 4, !tbaa !10
  br label %40

40:                                               ; preds = %31
  %41 = load i64, ptr %9, align 8, !tbaa !8
  %42 = add i64 %41, 1
  store i64 %42, ptr %9, align 8, !tbaa !8
  br label %27, !llvm.loop !25

43:                                               ; preds = %30
  %44 = load ptr, ptr %4, align 8, !tbaa !3
  %45 = getelementptr inbounds nuw %struct.mi_random_cxt_s, ptr %44, i32 0, i32 0
  %46 = getelementptr inbounds [16 x i32], ptr %45, i64 0, i64 12
  store i32 0, ptr %46, align 4, !tbaa !10
  %47 = load ptr, ptr %4, align 8, !tbaa !3
  %48 = getelementptr inbounds nuw %struct.mi_random_cxt_s, ptr %47, i32 0, i32 0
  %49 = getelementptr inbounds [16 x i32], ptr %48, i64 0, i64 13
  store i32 0, ptr %49, align 4, !tbaa !10
  %50 = load i64, ptr %6, align 8, !tbaa !8
  %51 = trunc i64 %50 to i32
  %52 = load ptr, ptr %4, align 8, !tbaa !3
  %53 = getelementptr inbounds nuw %struct.mi_random_cxt_s, ptr %52, i32 0, i32 0
  %54 = getelementptr inbounds [16 x i32], ptr %53, i64 0, i64 14
  store i32 %51, ptr %54, align 4, !tbaa !10
  %55 = load i64, ptr %6, align 8, !tbaa !8
  %56 = lshr i64 %55, 32
  %57 = trunc i64 %56 to i32
  %58 = load ptr, ptr %4, align 8, !tbaa !3
  %59 = getelementptr inbounds nuw %struct.mi_random_cxt_s, ptr %58, i32 0, i32 0
  %60 = getelementptr inbounds [16 x i32], ptr %59, i64 0, i64 15
  store i32 %57, ptr %60, align 4, !tbaa !10
  ret void
}

; Function Attrs: inlinehint nounwind uwtable
define internal i64 @_mi_random_shuffle(i64 noundef %0) #3 {
  %2 = alloca i64, align 8
  store i64 %0, ptr %2, align 8, !tbaa !8
  %3 = load i64, ptr %2, align 8, !tbaa !8
  %4 = icmp eq i64 %3, 0
  br i1 %4, label %5, label %6

5:                                                ; preds = %1
  store i64 17, ptr %2, align 8, !tbaa !8
  br label %6

6:                                                ; preds = %5, %1
  %7 = load i64, ptr %2, align 8, !tbaa !8
  %8 = lshr i64 %7, 30
  %9 = load i64, ptr %2, align 8, !tbaa !8
  %10 = xor i64 %9, %8
  store i64 %10, ptr %2, align 8, !tbaa !8
  %11 = load i64, ptr %2, align 8, !tbaa !8
  %12 = mul i64 %11, -4658895280553007687
  store i64 %12, ptr %2, align 8, !tbaa !8
  %13 = load i64, ptr %2, align 8, !tbaa !8
  %14 = lshr i64 %13, 27
  %15 = load i64, ptr %2, align 8, !tbaa !8
  %16 = xor i64 %15, %14
  store i64 %16, ptr %2, align 8, !tbaa !8
  %17 = load i64, ptr %2, align 8, !tbaa !8
  %18 = mul i64 %17, -7723592293110705685
  store i64 %18, ptr %2, align 8, !tbaa !8
  %19 = load i64, ptr %2, align 8, !tbaa !8
  %20 = lshr i64 %19, 31
  %21 = load i64, ptr %2, align 8, !tbaa !8
  %22 = xor i64 %21, %20
  store i64 %22, ptr %2, align 8, !tbaa !8
  %23 = load i64, ptr %2, align 8, !tbaa !8
  ret i64 %23
}

; Function Attrs: nounwind uwtable
define hidden i64 @_mi_os_random_weak(i64 noundef %0) #0 {
  %2 = alloca i64, align 8
  %3 = alloca i64, align 8
  %4 = alloca %struct.timespec, align 8
  %5 = alloca i64, align 8
  %6 = alloca i64, align 8
  store i64 %0, ptr %2, align 8, !tbaa !8
  call void @llvm.lifetime.start.p0(i64 8, ptr %3) #8
  %7 = load i64, ptr %2, align 8, !tbaa !8
  %8 = xor i64 ptrtoint (ptr @_mi_os_random_weak to i64), %7
  store i64 %8, ptr %3, align 8, !tbaa !8
  call void @llvm.lifetime.start.p0(i64 16, ptr %4) #8
  %9 = call i32 @clock_gettime(i32 noundef 1, ptr noundef %4) #8
  %10 = getelementptr inbounds nuw %struct.timespec, ptr %4, i32 0, i32 0
  %11 = load i64, ptr %10, align 8, !tbaa !14
  %12 = load i64, ptr %3, align 8, !tbaa !8
  %13 = xor i64 %12, %11
  store i64 %13, ptr %3, align 8, !tbaa !8
  %14 = getelementptr inbounds nuw %struct.timespec, ptr %4, i32 0, i32 1
  %15 = load i64, ptr %14, align 8, !tbaa !16
  %16 = load i64, ptr %3, align 8, !tbaa !8
  %17 = xor i64 %16, %15
  store i64 %17, ptr %3, align 8, !tbaa !8
  call void @llvm.lifetime.start.p0(i64 8, ptr %5) #8
  %18 = load i64, ptr %3, align 8, !tbaa !8
  %19 = load i64, ptr %3, align 8, !tbaa !8
  %20 = lshr i64 %19, 17
  %21 = xor i64 %18, %20
  %22 = and i64 %21, 15
  %23 = add i64 %22, 1
  store i64 %23, ptr %5, align 8, !tbaa !8
  call void @llvm.lifetime.start.p0(i64 8, ptr %6) #8
  store i64 0, ptr %6, align 8, !tbaa !8
  br label %24

24:                                               ; preds = %32, %1
  %25 = load i64, ptr %6, align 8, !tbaa !8
  %26 = load i64, ptr %5, align 8, !tbaa !8
  %27 = icmp ult i64 %25, %26
  br i1 %27, label %29, label %28

28:                                               ; preds = %24
  call void @llvm.lifetime.end.p0(i64 8, ptr %6) #8
  br label %35

29:                                               ; preds = %24
  %30 = load i64, ptr %3, align 8, !tbaa !8
  %31 = call i64 @_mi_random_shuffle(i64 noundef %30)
  store i64 %31, ptr %3, align 8, !tbaa !8
  br label %32

32:                                               ; preds = %29
  %33 = load i64, ptr %6, align 8, !tbaa !8
  %34 = add i64 %33, 1
  store i64 %34, ptr %6, align 8, !tbaa !8
  br label %24, !llvm.loop !17

35:                                               ; preds = %28
  %36 = load i64, ptr %3, align 8, !tbaa !8
  call void @llvm.lifetime.end.p0(i64 8, ptr %5) #8
  call void @llvm.lifetime.end.p0(i64 16, ptr %4) #8
  call void @llvm.lifetime.end.p0(i64 8, ptr %3) #8
  ret i64 %36
}

; Function Attrs: nounwind uwtable
define internal zeroext i1 @os_random_buf(ptr noundef %0, i64 noundef %1) #0 {
  %3 = alloca i1, align 1
  %4 = alloca ptr, align 8
  %5 = alloca i64, align 8
  %6 = alloca i64, align 8
  %7 = alloca i64, align 8
  %8 = alloca i32, align 4
  %9 = alloca i64, align 8
  %10 = alloca i32, align 4
  %11 = alloca i32, align 4
  %12 = alloca i64, align 8
  %13 = alloca i64, align 8
  store ptr %0, ptr %4, align 8, !tbaa !20
  store i64 %1, ptr %5, align 8, !tbaa !8
  %14 = load atomic i64, ptr @os_random_buf.no_getrandom acquire, align 8
  store i64 %14, ptr %6, align 8
  %15 = load i64, ptr %6, align 8, !tbaa !8
  %16 = icmp eq i64 %15, 0
  br i1 %16, label %17, label %37

17:                                               ; preds = %2
  call void @llvm.lifetime.start.p0(i64 8, ptr %7) #8
  %18 = load ptr, ptr %4, align 8, !tbaa !20
  %19 = load i64, ptr %5, align 8, !tbaa !8
  %20 = call i64 (i64, ...) @syscall(i64 noundef 318, ptr noundef %18, i64 noundef %19, i32 noundef 1) #8
  store i64 %20, ptr %7, align 8, !tbaa !8
  %21 = load i64, ptr %7, align 8, !tbaa !8
  %22 = icmp sge i64 %21, 0
  br i1 %22, label %23, label %27

23:                                               ; preds = %17
  %24 = load i64, ptr %5, align 8, !tbaa !8
  %25 = load i64, ptr %7, align 8, !tbaa !8
  %26 = icmp eq i64 %24, %25
  store i1 %26, ptr %3, align 1
  store i32 1, ptr %8, align 4
  br label %34

27:                                               ; preds = %17
  %28 = call ptr @__errno_location() #9
  %29 = load i32, ptr %28, align 4, !tbaa !10
  %30 = icmp ne i32 %29, 38
  br i1 %30, label %31, label %32

31:                                               ; preds = %27
  store i1 false, ptr %3, align 1
  store i32 1, ptr %8, align 4
  br label %34

32:                                               ; preds = %27
  store i64 1, ptr %9, align 8, !tbaa !8
  %33 = load i64, ptr %9, align 8
  store atomic i64 %33, ptr @os_random_buf.no_getrandom release, align 8
  store i32 0, ptr %8, align 4
  br label %34

34:                                               ; preds = %32, %31, %23
  call void @llvm.lifetime.end.p0(i64 8, ptr %7) #8
  %35 = load i32, ptr %8, align 4
  switch i32 %35, label %88 [
    i32 0, label %36
    i32 1, label %86
  ]

36:                                               ; preds = %34
  br label %37

37:                                               ; preds = %36, %2
  call void @llvm.lifetime.start.p0(i64 4, ptr %10) #8
  store i32 0, ptr %10, align 4, !tbaa !10
  %38 = load i32, ptr %10, align 4, !tbaa !10
  %39 = or i32 %38, 524288
  store i32 %39, ptr %10, align 4, !tbaa !10
  call void @llvm.lifetime.start.p0(i64 4, ptr %11) #8
  %40 = load i32, ptr %10, align 4, !tbaa !10
  %41 = call i32 (ptr, i32, ...) @open(ptr noundef @.str.1, i32 noundef %40, i32 noundef 0)
  store i32 %41, ptr %11, align 4, !tbaa !10
  %42 = load i32, ptr %11, align 4, !tbaa !10
  %43 = icmp slt i32 %42, 0
  br i1 %43, label %44, label %45

44:                                               ; preds = %37
  store i1 false, ptr %3, align 1
  store i32 1, ptr %8, align 4
  br label %85

45:                                               ; preds = %37
  call void @llvm.lifetime.start.p0(i64 8, ptr %12) #8
  store i64 0, ptr %12, align 8, !tbaa !8
  br label %46

46:                                               ; preds = %78, %45
  %47 = load i64, ptr %12, align 8, !tbaa !8
  %48 = load i64, ptr %5, align 8, !tbaa !8
  %49 = icmp ult i64 %47, %48
  br i1 %49, label %50, label %79

50:                                               ; preds = %46
  call void @llvm.lifetime.start.p0(i64 8, ptr %13) #8
  %51 = load i32, ptr %11, align 4, !tbaa !10
  %52 = load ptr, ptr %4, align 8, !tbaa !20
  %53 = load i64, ptr %12, align 8, !tbaa !8
  %54 = getelementptr inbounds nuw i8, ptr %52, i64 %53
  %55 = load i64, ptr %5, align 8, !tbaa !8
  %56 = load i64, ptr %12, align 8, !tbaa !8
  %57 = sub i64 %55, %56
  %58 = call i64 @read(i32 noundef %51, ptr noundef %54, i64 noundef %57)
  store i64 %58, ptr %13, align 8, !tbaa !8
  %59 = load i64, ptr %13, align 8, !tbaa !8
  %60 = icmp sle i64 %59, 0
  br i1 %60, label %61, label %71

61:                                               ; preds = %50
  %62 = call ptr @__errno_location() #9
  %63 = load i32, ptr %62, align 4, !tbaa !10
  %64 = icmp ne i32 %63, 11
  br i1 %64, label %65, label %70

65:                                               ; preds = %61
  %66 = call ptr @__errno_location() #9
  %67 = load i32, ptr %66, align 4, !tbaa !10
  %68 = icmp ne i32 %67, 4
  br i1 %68, label %69, label %70

69:                                               ; preds = %65
  store i32 3, ptr %8, align 4
  br label %76

70:                                               ; preds = %65, %61
  br label %75

71:                                               ; preds = %50
  %72 = load i64, ptr %13, align 8, !tbaa !8
  %73 = load i64, ptr %12, align 8, !tbaa !8
  %74 = add i64 %73, %72
  store i64 %74, ptr %12, align 8, !tbaa !8
  br label %75

75:                                               ; preds = %71, %70
  store i32 0, ptr %8, align 4
  br label %76

76:                                               ; preds = %75, %69
  call void @llvm.lifetime.end.p0(i64 8, ptr %13) #8
  %77 = load i32, ptr %8, align 4
  switch i32 %77, label %88 [
    i32 0, label %78
    i32 3, label %79
  ]

78:                                               ; preds = %76
  br label %46, !llvm.loop !21

79:                                               ; preds = %76, %46
  %80 = load i32, ptr %11, align 4, !tbaa !10
  %81 = call i32 @close(i32 noundef %80)
  %82 = load i64, ptr %12, align 8, !tbaa !8
  %83 = load i64, ptr %5, align 8, !tbaa !8
  %84 = icmp eq i64 %82, %83
  store i1 %84, ptr %3, align 1
  store i32 1, ptr %8, align 4
  call void @llvm.lifetime.end.p0(i64 8, ptr %12) #8
  br label %85

85:                                               ; preds = %79, %44
  call void @llvm.lifetime.end.p0(i64 4, ptr %11) #8
  call void @llvm.lifetime.end.p0(i64 4, ptr %10) #8
  br label %86

86:                                               ; preds = %85, %34
  %87 = load i1, ptr %3, align 1
  ret i1 %87

88:                                               ; preds = %76, %34
  unreachable
}

; Function Attrs: nounwind uwtable
define hidden void @_mi_random_init(ptr noundef %0) #0 {
  %2 = alloca ptr, align 8
  %3 = alloca [32 x i8], align 16
  %4 = alloca i64, align 8
  %5 = alloca i64, align 8
  store ptr %0, ptr %2, align 8, !tbaa !3
  call void @llvm.lifetime.start.p0(i64 32, ptr %3) #8
  %6 = getelementptr inbounds [32 x i8], ptr %3, i64 0, i64 0
  %7 = call zeroext i1 @os_random_buf(ptr noundef %6, i64 noundef 32)
  br i1 %7, label %26, label %8

8:                                                ; preds = %1
  call void (ptr, ...) @_mi_warning_message(ptr noundef @.str)
  call void @llvm.lifetime.start.p0(i64 8, ptr %4) #8
  %9 = call i64 @_mi_os_random_weak(i64 noundef 0)
  store i64 %9, ptr %4, align 8, !tbaa !8
  call void @llvm.lifetime.start.p0(i64 8, ptr %5) #8
  store i64 0, ptr %5, align 8, !tbaa !8
  br label %10

10:                                               ; preds = %22, %8
  %11 = load i64, ptr %5, align 8, !tbaa !8
  %12 = icmp ult i64 %11, 8
  br i1 %12, label %14, label %13

13:                                               ; preds = %10
  call void @llvm.lifetime.end.p0(i64 8, ptr %5) #8
  br label %25

14:                                               ; preds = %10
  %15 = load i64, ptr %4, align 8, !tbaa !8
  %16 = call i64 @_mi_random_shuffle(i64 noundef %15)
  store i64 %16, ptr %4, align 8, !tbaa !8
  %17 = load i64, ptr %4, align 8, !tbaa !8
  %18 = trunc i64 %17 to i32
  %19 = getelementptr inbounds [32 x i8], ptr %3, i64 0, i64 0
  %20 = load i64, ptr %5, align 8, !tbaa !8
  %21 = getelementptr inbounds nuw i32, ptr %19, i64 %20
  store i32 %18, ptr %21, align 4, !tbaa !10
  br label %22

22:                                               ; preds = %14
  %23 = load i64, ptr %5, align 8, !tbaa !8
  %24 = add i64 %23, 1
  store i64 %24, ptr %5, align 8, !tbaa !8
  br label %10, !llvm.loop !19

25:                                               ; preds = %13
  call void @llvm.lifetime.end.p0(i64 8, ptr %4) #8
  br label %26

26:                                               ; preds = %25, %1
  %27 = load ptr, ptr %2, align 8, !tbaa !3
  %28 = getelementptr inbounds [32 x i8], ptr %3, i64 0, i64 0
  %29 = load ptr, ptr %2, align 8, !tbaa !3
  %30 = ptrtoint ptr %29 to i64
  call void @chacha_init(ptr noundef %27, ptr noundef %28, i64 noundef %30)
  call void @llvm.lifetime.end.p0(i64 32, ptr %3) #8
  ret void
}