; Function Attrs: nounwind uwtable
define hidden void @_mi_random_init(ptr noundef %0) local_unnamed_addr #1 {
  %2 = alloca %struct.timespec, align 8
  %3 = alloca [32 x i8], align 16
  call void @llvm.lifetime.start.p0(i64 32, ptr nonnull %3) #10
  %4 = load atomic i64, ptr @os_random_buf.no_getrandom acquire, align 8
  %5 = icmp eq i64 %4, 0
  br i1 %5, label %6, label %13

6:                                                ; preds = %1
  %7 = call i64 (i64, ...) @syscall(i64 noundef 318, ptr noundef nonnull %3, i64 noundef 32, i32 noundef 1) #10
  %8 = icmp sgt i64 %7, -1
  br i1 %8, label %os_random_buf.exit, label %9

9:                                                ; preds = %6
  %10 = tail call ptr @__errno_location() #11
  %11 = load i32, ptr %10, align 4, !tbaa !3
  %.not.i = icmp eq i32 %11, 38
  br i1 %.not.i, label %12, label %os_random_buf.exit.thread

12:                                               ; preds = %9
  store atomic i64 1, ptr @os_random_buf.no_getrandom release, align 8
  br label %13

13:                                               ; preds = %12, %1
  %14 = call i32 (ptr, i32, ...) @open(ptr noundef nonnull @.str.1, i32 noundef 524288, i32 noundef 0) #10
  %15 = icmp slt i32 %14, 0
  br i1 %15, label %os_random_buf.exit.thread, label %.preheader.i

.preheader.i:                                     ; preds = %13, %26
  %.02546.i = phi i64 [ %.227.i, %26 ], [ 0, %13 ]
  %16 = getelementptr inbounds nuw i8, ptr %3, i64 %.02546.i
  %17 = sub nuw nsw i64 32, %.02546.i
  %18 = call i64 @read(i32 noundef %14, ptr noundef nonnull %16, i64 noundef %17) #10
  %19 = icmp slt i64 %18, 1
  br i1 %19, label %20, label %24

20:                                               ; preds = %.preheader.i
  %21 = tail call ptr @__errno_location() #11
  %22 = load i32, ptr %21, align 4, !tbaa !3
  switch i32 %22, label %.thread42.i.thread [
    i32 11, label %26
    i32 4, label %26
  ]

.thread42.i.thread:                               ; preds = %20
  %23 = call i32 @close(i32 noundef %14) #10
  br label %os_random_buf.exit.thread

24:                                               ; preds = %.preheader.i
  %25 = add nuw i64 %18, %.02546.i
  br label %26

26:                                               ; preds = %24, %20, %20
  %.227.i = phi i64 [ %25, %24 ], [ %.02546.i, %20 ], [ %.02546.i, %20 ]
  %27 = icmp ult i64 %.227.i, 32
  br i1 %27, label %.preheader.i, label %.thread42.i

.thread42.i:                                      ; preds = %26
  %28 = call i32 @close(i32 noundef %14) #10
  %29 = icmp eq i64 %.227.i, 32
  br i1 %29, label %.loopexit, label %os_random_buf.exit.thread

os_random_buf.exit:                               ; preds = %6
  %30 = icmp eq i64 %7, 32
  br i1 %30, label %.loopexit, label %os_random_buf.exit.thread

os_random_buf.exit.thread:                        ; preds = %9, %13, %.thread42.i.thread, %.thread42.i, %os_random_buf.exit
  call void (ptr, ...) @_mi_warning_message(ptr noundef nonnull @.str) #10
  call void @llvm.lifetime.start.p0(i64 16, ptr nonnull %2) #10
  %31 = call i32 @clock_gettime(i32 noundef 1, ptr noundef nonnull %2) #10
  %32 = load i64, ptr %2, align 8, !tbaa !9
  %33 = xor i64 %32, ptrtoint (ptr @_mi_os_random_weak to i64)
  %34 = getelementptr inbounds nuw i8, ptr %2, i64 8
  %35 = load i64, ptr %34, align 8, !tbaa !12
  %36 = xor i64 %33, %35
  %37 = lshr i64 %36, 17
  %38 = xor i64 %37, %36
  %39 = and i64 %38, 15
  br label %40

40:                                               ; preds = %40, %os_random_buf.exit.thread
  %.012.i = phi i64 [ 0, %os_random_buf.exit.thread ], [ %50, %40 ]
  %.01011.i = phi i64 [ %36, %os_random_buf.exit.thread ], [ %49, %40 ]
  %41 = icmp eq i64 %.01011.i, 0
  %spec.store.select.i.i = select i1 %41, i64 17, i64 %.01011.i
  %42 = lshr i64 %spec.store.select.i.i, 30
  %43 = xor i64 %42, %spec.store.select.i.i
  %44 = mul i64 %43, -4658895280553007687
  %45 = lshr i64 %44, 27
  %46 = xor i64 %45, %44
  %47 = mul i64 %46, -7723592293110705685
  %48 = lshr i64 %47, 31
  %49 = xor i64 %48, %47
  %50 = add nuw nsw i64 %.012.i, 1
  %exitcond.not.i = icmp eq i64 %.012.i, %39
  br i1 %exitcond.not.i, label %_mi_os_random_weak.exit, label %40, !llvm.loop !13

_mi_os_random_weak.exit:                          ; preds = %40
  call void @llvm.lifetime.end.p0(i64 16, ptr nonnull %2) #10
  br label %51

51:                                               ; preds = %_mi_os_random_weak.exit, %51
  %.012 = phi i64 [ 0, %_mi_os_random_weak.exit ], [ %63, %51 ]
  %.0611 = phi i64 [ %49, %_mi_os_random_weak.exit ], [ %60, %51 ]
  %52 = icmp eq i64 %.0611, 0
  %spec.store.select.i = select i1 %52, i64 17, i64 %.0611
  %53 = lshr i64 %spec.store.select.i, 30
  %54 = xor i64 %53, %spec.store.select.i
  %55 = mul i64 %54, -4658895280553007687
  %56 = lshr i64 %55, 27
  %57 = xor i64 %56, %55
  %58 = mul i64 %57, -7723592293110705685
  %59 = lshr i64 %58, 31
  %60 = xor i64 %59, %58
  %61 = trunc i64 %60 to i32
  %62 = getelementptr inbounds nuw i32, ptr %3, i64 %.012
  store i32 %61, ptr %62, align 4, !tbaa !3
  %63 = add nuw nsw i64 %.012, 1
  %exitcond.not = icmp eq i64 %63, 8
  br i1 %exitcond.not, label %.loopexit, label %51, !llvm.loop !15

.loopexit:                                        ; preds = %51, %.thread42.i, %os_random_buf.exit
  call void @llvm.memset.p0.i64(ptr noundef nonnull align 4 dereferenceable(132) %0, i8 0, i64 132, i1 false)
  br label %64

64:                                               ; preds = %64, %.loopexit
  %.01819.i = phi i64 [ 0, %.loopexit ], [ %88, %64 ]
  %65 = shl nuw nsw i64 %.01819.i, 2
  %66 = getelementptr inbounds nuw i8, ptr @.str.2, i64 %65
  %67 = load i8, ptr %66, align 1, !tbaa !16
  %68 = zext i8 %67 to i32
  %69 = or disjoint i64 %65, 1
  %70 = getelementptr inbounds nuw i8, ptr @.str.2, i64 %69
  %71 = load i8, ptr %70, align 1, !tbaa !16
  %72 = zext i8 %71 to i32
  %73 = shl nuw nsw i32 %72, 8
  %74 = or disjoint i32 %73, %68
  %75 = or disjoint i64 %65, 2
  %76 = getelementptr inbounds nuw i8, ptr @.str.2, i64 %75
  %77 = load i8, ptr %76, align 1, !tbaa !16
  %78 = zext i8 %77 to i32
  %79 = shl nuw nsw i32 %78, 16
  %80 = or disjoint i32 %74, %79
  %81 = or disjoint i64 %65, 3
  %82 = getelementptr inbounds nuw i8, ptr @.str.2, i64 %81
  %83 = load i8, ptr %82, align 1, !tbaa !16
  %84 = zext i8 %83 to i32
  %85 = shl nuw i32 %84, 24
  %86 = or disjoint i32 %80, %85
  %87 = getelementptr inbounds nuw [16 x i32], ptr %0, i64 0, i64 %.01819.i
  store i32 %86, ptr %87, align 4, !tbaa !3
  %88 = add nuw nsw i64 %.01819.i, 1
  %exitcond.not.i7 = icmp eq i64 %88, 4
  br i1 %exitcond.not.i7, label %.preheader.i8, label %64, !llvm.loop !17

.preheader.i8:                                    ; preds = %64, %.preheader.i8
  %.020.i = phi i64 [ %113, %.preheader.i8 ], [ 0, %64 ]
  %89 = shl nuw nsw i64 %.020.i, 2
  %90 = getelementptr inbounds nuw i8, ptr %3, i64 %89
  %91 = load i8, ptr %90, align 4, !tbaa !16
  %92 = zext i8 %91 to i32
  %93 = or disjoint i64 %89, 1
  %94 = getelementptr inbounds nuw i8, ptr %3, i64 %93
  %95 = load i8, ptr %94, align 1, !tbaa !16
  %96 = zext i8 %95 to i32
  %97 = shl nuw nsw i32 %96, 8
  %98 = or disjoint i32 %97, %92
  %99 = or disjoint i64 %89, 2
  %100 = getelementptr inbounds nuw i8, ptr %3, i64 %99
  %101 = load i8, ptr %100, align 2, !tbaa !16
  %102 = zext i8 %101 to i32
  %103 = shl nuw nsw i32 %102, 16
  %104 = or disjoint i32 %98, %103
  %105 = or disjoint i64 %89, 3
  %106 = getelementptr inbounds nuw i8, ptr %3, i64 %105
  %107 = load i8, ptr %106, align 1, !tbaa !16
  %108 = zext i8 %107 to i32
  %109 = shl nuw i32 %108, 24
  %110 = or disjoint i32 %104, %109
  %111 = add nuw nsw i64 %.020.i, 4
  %112 = getelementptr inbounds nuw [16 x i32], ptr %0, i64 0, i64 %111
  store i32 %110, ptr %112, align 4, !tbaa !3
  %113 = add nuw nsw i64 %.020.i, 1
  %exitcond21.not.i = icmp eq i64 %113, 8
  br i1 %exitcond21.not.i, label %chacha_init.exit, label %.preheader.i8, !llvm.loop !18

chacha_init.exit:                                 ; preds = %.preheader.i8
  %114 = ptrtoint ptr %0 to i64
  %115 = getelementptr inbounds nuw i8, ptr %0, i64 48
  store i32 0, ptr %115, align 4, !tbaa !3
  %116 = getelementptr inbounds nuw i8, ptr %0, i64 52
  store i32 0, ptr %116, align 4, !tbaa !3
  %117 = trunc i64 %114 to i32
  %118 = getelementptr inbounds nuw i8, ptr %0, i64 56
  store i32 %117, ptr %118, align 4, !tbaa !3
  %119 = lshr i64 %114, 32
  %120 = trunc nuw i64 %119 to i32
  %121 = getelementptr inbounds nuw i8, ptr %0, i64 60
  store i32 %120, ptr %121, align 4, !tbaa !3
  call void @llvm.lifetime.end.p0(i64 32, ptr nonnull %3) #10
  ret void
}